target datalayout = "e-m:e-p270:32:32-p271:32:32-p272:64:64-i64:64-i128:128-f80:128-n8:16:32:64-S128"
target triple = "x86_64-pc-linux-gnu"

%struct.CLI_LZMA = type { %struct.CLzmaDec, [5 x i8], i32, i32, i32, i32, i64, ptr, ptr, i64, i64 }
%struct.CLzmaDec = type { %struct._CLzmaProps, ptr, ptr, ptr, i32, i32, i64, i64, i32, i32, i32, [4 x i32], i32, i32, i32, i32, i32, [20 x i8] }
%struct._CLzmaProps = type { i32, i32, i32, i32 }

; Function Attrs: nounwind uwtable
define i32 @cli_LzmaDecode(ptr noundef %0) #0 {
  %2 = alloca i32, align 4
  %3 = alloca ptr, align 8
  %4 = alloca i32, align 4
  %5 = alloca i64, align 8
  %6 = alloca i64, align 8
  %7 = alloca i32, align 4
  %8 = alloca i32, align 4
  store ptr %0, ptr %3, align 8
  %9 = load ptr, ptr %3, align 8
  %10 = getelementptr inbounds %struct.CLI_LZMA, ptr %9, i32 0, i32 4
  %11 = load i32, ptr %10, align 8
  %12 = icmp ne i32 %11, 0
  br i1 %12, label %16, label %13

13:                                               ; preds = %1
  %14 = load ptr, ptr %3, align 8
  %15 = call i32 @cli_LzmaInit(ptr noundef %14, i64 noundef 0)
  store i32 %15, ptr %2, align 4
  br label %97

16:                                               ; preds = %1
  %17 = load ptr, ptr %3, align 8
  %18 = getelementptr inbounds %struct.CLI_LZMA, ptr %17, i32 0, i32 9
  %19 = load i64, ptr %18, align 8
  store i64 %19, ptr %6, align 8
  %20 = load ptr, ptr %3, align 8
  %21 = getelementptr inbounds %struct.CLI_LZMA, ptr %20, i32 0, i32 6
  %22 = load i64, ptr %21, align 8
  %23 = xor i64 %22, -1
  %24 = icmp ne i64 %23, 0
  br i1 %24, label %25, label %37

25:                                               ; preds = %16
  %26 = load ptr, ptr %3, align 8
  %27 = getelementptr inbounds %struct.CLI_LZMA, ptr %26, i32 0, i32 10
  %28 = load i64, ptr %27, align 8
  %29 = load ptr, ptr %3, align 8
  %30 = getelementptr inbounds %struct.CLI_LZMA, ptr %29, i32 0, i32 6
  %31 = load i64, ptr %30, align 8
  %32 = icmp ugt i64 %28, %31
  br i1 %32, label %33, label %37

33:                                               ; preds = %25
  %34 = load ptr, ptr %3, align 8
  %35 = getelementptr inbounds %struct.CLI_LZMA, ptr %34, i32 0, i32 6
  %36 = load i64, ptr %35, align 8
  store i64 %36, ptr %5, align 8
  store i32 1, ptr %8, align 4
  br label %41

37:                                               ; preds = %25, %16
  %38 = load ptr, ptr %3, align 8
  %39 = getelementptr inbounds %struct.CLI_LZMA, ptr %38, i32 0, i32 10
  %40 = load i64, ptr %39, align 8
  store i64 %40, ptr %5, align 8
  store i32 0, ptr %8, align 4
  br label %41

41:                                               ; preds = %37, %33
  %42 = load ptr, ptr %3, align 8
  %43 = getelementptr inbounds %struct.CLI_LZMA, ptr %42, i32 0, i32 0
  %44 = load ptr, ptr %3, align 8
  %45 = getelementptr inbounds %struct.CLI_LZMA, ptr %44, i32 0, i32 8
  %46 = load ptr, ptr %45, align 8
  %47 = load ptr, ptr %3, align 8
  %48 = getelementptr inbounds %struct.CLI_LZMA, ptr %47, i32 0, i32 7
  %49 = load ptr, ptr %48, align 8
  %50 = load i32, ptr %8, align 4
  %51 = call i32 @LzmaDec_DecodeToBuf(ptr noundef %43, ptr noundef %46, ptr noundef %5, ptr noundef %49, ptr noundef %6, i32 noundef %50, ptr noundef %7)
  store i32 %51, ptr %4, align 4
  %52 = load i64, ptr %6, align 8
  %53 = load ptr, ptr %3, align 8
  %54 = getelementptr inbounds %struct.CLI_LZMA, ptr %53, i32 0, i32 9
  %55 = load i64, ptr %54, align 8
  %56 = sub i64 %55, %52
  store i64 %56, ptr %54, align 8
  %57 = load i64, ptr %6, align 8
  %58 = load ptr, ptr %3, align 8
  %59 = getelementptr inbounds %struct.CLI_LZMA, ptr %58, i32 0, i32 7
  %60 = load ptr, ptr %59, align 8
  %61 = getelementptr inbounds i8, ptr %60, i64 %57
  store ptr %61, ptr %59, align 8
  %62 = load i64, ptr %5, align 8
  %63 = load ptr, ptr %3, align 8
  %64 = getelementptr inbounds %struct.CLI_LZMA, ptr %63, i32 0, i32 10
  %65 = load i64, ptr %64, align 8
  %66 = sub i64 %65, %62
  store i64 %66, ptr %64, align 8
  %67 = load i64, ptr %5, align 8
  %68 = load ptr, ptr %3, align 8
  %69 = getelementptr inbounds %struct.CLI_LZMA, ptr %68, i32 0, i32 8
  %70 = load ptr, ptr %69, align 8
  %71 = getelementptr inbounds i8, ptr %70, i64 %67
  store ptr %71, ptr %69, align 8
  %72 = load ptr, ptr %3, align 8
  %73 = getelementptr inbounds %struct.CLI_LZMA, ptr %72, i32 0, i32 6
  %74 = load i64, ptr %73, align 8
  %75 = xor i64 %74, -1
  %76 = icmp ne i64 %75, 0
  br i1 %76, label %77, label %83

77:                                               ; preds = %41
  %78 = load i64, ptr %5, align 8
  %79 = load ptr, ptr %3, align 8
  %80 = getelementptr inbounds %struct.CLI_LZMA, ptr %79, i32 0, i32 6
  %81 = load i64, ptr %80, align 8
  %82 = sub i64 %81, %78
  store i64 %82, ptr %80, align 8
  br label %83

83:                                               ; preds = %77, %41
  %84 = load i32, ptr %4, align 4
  %85 = icmp ne i32 %84, 0
  br i1 %85, label %86, label %87

86:                                               ; preds = %83
  store i32 1, ptr %2, align 4
  br label %97

87:                                               ; preds = %83
  %88 = load ptr, ptr %3, align 8
  %89 = getelementptr inbounds %struct.CLI_LZMA, ptr %88, i32 0, i32 6
  %90 = load i64, ptr %89, align 8
  %91 = icmp ne i64 %90, 0
  br i1 %91, label %92, label %95

92:                                               ; preds = %87
  %93 = load i32, ptr %7, align 4
  %94 = icmp eq i32 %93, 1
  br i1 %94, label %95, label %96

95:                                               ; preds = %92, %87
  store i32 2, ptr %2, align 4
  br label %97

96:                                               ; preds = %92
  store i32 0, ptr %2, align 4
  br label %97

97:                                               ; preds = %96, %95, %86, %13
  %98 = load i32, ptr %2, align 4
  ret i32 %98
}