; Function Attrs: nounwind uwtable
define i32 @cli_LzmaDecode(ptr noundef %0) local_unnamed_addr #0 {
  %2 = alloca i64, align 8
  %3 = alloca i64, align 8
  %4 = alloca i32, align 4
  %5 = getelementptr inbounds i8, ptr %0, i64 152
  %6 = load i32, ptr %5, align 8
  %.not = icmp eq i32 %6, 0
  br i1 %.not, label %7, label %._crit_edge

7:                                                ; preds = %1
  %8 = tail call i32 @cli_LzmaInit(ptr noundef nonnull %0, i64 noundef 0), !range !4
  br label %39

._crit_edge:                                      ; preds = %1
  %9 = getelementptr inbounds i8, ptr %0, i64 184
  %10 = load i64, ptr %9, align 8
  store i64 %10, ptr %3, align 8
  %11 = getelementptr inbounds i8, ptr %0, i64 160
  %12 = load i64, ptr %11, align 8
  %.not23 = icmp ne i64 %12, -1
  %.phi.trans.insert = getelementptr inbounds i8, ptr %0, i64 192
  %.pre = load i64, ptr %.phi.trans.insert, align 8
  %13 = icmp ugt i64 %.pre, %12
  %spec.select = tail call i64 @llvm.umin.i64(i64 %.pre, i64 %12)
  %storemerge = select i1 %.not23, i64 %spec.select, i64 %.pre
  %narrow = select i1 %.not23, i1 %13, i1 false
  %.0 = zext i1 %narrow to i32
  store i64 %storemerge, ptr %2, align 8
  %14 = getelementptr inbounds i8, ptr %0, i64 176
  %15 = load ptr, ptr %14, align 8
  %16 = getelementptr inbounds i8, ptr %0, i64 168
  %17 = load ptr, ptr %16, align 8
  %18 = call i32 @LzmaDec_DecodeToBuf(ptr noundef nonnull %0, ptr noundef %15, ptr noundef nonnull %2, ptr noundef %17, ptr noundef nonnull %3, i32 noundef %.0, ptr noundef nonnull %4) #6
  %19 = load i64, ptr %3, align 8
  %20 = load i64, ptr %9, align 8
  %21 = sub i64 %20, %19
  store i64 %21, ptr %9, align 8
  %22 = load ptr, ptr %16, align 8
  %23 = getelementptr inbounds i8, ptr %22, i64 %19
  store ptr %23, ptr %16, align 8
  %24 = load i64, ptr %2, align 8
  %25 = getelementptr inbounds i8, ptr %0, i64 192
  %26 = load i64, ptr %25, align 8
  %27 = sub i64 %26, %24
  store i64 %27, ptr %25, align 8
  %28 = load ptr, ptr %14, align 8
  %29 = getelementptr inbounds i8, ptr %28, i64 %24
  store ptr %29, ptr %14, align 8
  %30 = load i64, ptr %11, align 8
  %.not24 = icmp eq i64 %30, -1
  br i1 %.not24, label %34, label %31

31:                                               ; preds = %._crit_edge
  %32 = sub i64 %30, %24
  store i64 %32, ptr %11, align 8
  %33 = icmp eq i64 %30, %24
  br label %34

34:                                               ; preds = %31, %._crit_edge
  %35 = phi i1 [ %33, %31 ], [ false, %._crit_edge ]
  %.not25 = icmp eq i32 %18, 0
  br i1 %.not25, label %36, label %39

36:                                               ; preds = %34
  %37 = load i32, ptr %4, align 4
  %38 = icmp eq i32 %37, 1
  %or.cond = select i1 %35, i1 true, i1 %38
  %. = select i1 %or.cond, i32 2, i32 0
  br label %39

39:                                               ; preds = %36, %34, %7
  %.021 = phi i32 [ %8, %7 ], [ 1, %34 ], [ %., %36 ]
  ret i32 %.021
}